target datalayout = "e-m:e-p270:32:32-p271:32:32-p272:64:64-i64:64-i128:128-f80:128-n8:16:32:64-S128"
target triple = "x86_64-pc-linux-gnu"

%struct.pmix_list_t = type { %struct.pmix_object_t, %struct.pmix_list_item_t, i64 }
%struct.pmix_object_t = type { %union.pthread_mutex_t, ptr, i32, %struct.pmix_tma }
%union.pthread_mutex_t = type { %struct.__pthread_mutex_s }
%struct.__pthread_mutex_s = type { i32, i32, i32, i32, i32, i16, i16, %struct.__pthread_internal_list }
%struct.__pthread_internal_list = type { ptr, ptr }
%struct.pmix_tma = type { ptr, ptr, ptr, ptr, ptr, ptr, ptr, ptr }
%struct.pmix_list_item_t = type { %struct.pmix_object_t, ptr, ptr, i32 }
%struct.pmix_mca_base_framework_t = type { ptr, ptr, ptr, ptr, ptr, ptr, i32, i32, ptr, ptr, i32, i32, %struct.pmix_list_t, %struct.pmix_list_t }
%struct.pmix_output_desc_t = type { i8, i8, i32, i8, i32, ptr, ptr, i32, ptr, i32, i8, i8, i8, i8, ptr, i32, i32 }
%struct.pmix_class_t = type { ptr, ptr, ptr, ptr, i32, i32, ptr, ptr, i64 }
%struct.prte_state_t = type { %struct.pmix_list_item_t, i32, i32, ptr }

@prte_state_base_framework = external global %struct.pmix_mca_base_framework_t, align 8
@pmix_output_info = external global [0 x %struct.pmix_output_desc_t], align 8
@.str.6 = private unnamed_addr constant [28 x i8] c"DUPLICATE STATE DEFINED: %s\00", align 1
@prte_state_t_class = external global %struct.pmix_class_t, align 8
@prte_proc_states = external global %struct.pmix_list_t, align 8
@pmix_class_init_epoch = external global i32, align 4

; Function Attrs: inlinehint nounwind uwtable
define internal void @pmix_obj_run_constructors(ptr noundef %0) #2 {
  %2 = alloca ptr, align 8
  %3 = alloca ptr, align 8
  store ptr %0, ptr %2, align 8, !tbaa !56
  call void @llvm.lifetime.start.p0(i64 8, ptr %3) #13
  %4 = load ptr, ptr %2, align 8, !tbaa !56
  %5 = getelementptr inbounds nuw %struct.pmix_object_t, ptr %4, i32 0, i32 1
  %6 = load ptr, ptr %5, align 8, !tbaa !59
  %7 = getelementptr inbounds nuw %struct.pmix_class_t, ptr %6, i32 0, i32 6
  %8 = load ptr, ptr %7, align 8, !tbaa !147
  store ptr %8, ptr %3, align 8, !tbaa !3
  br label %9

9:                                                ; preds = %13, %1
  %10 = load ptr, ptr %3, align 8, !tbaa !3
  %11 = load ptr, ptr %10, align 8, !tbaa !3
  %12 = icmp ne ptr null, %11
  br i1 %12, label %13, label %19

13:                                               ; preds = %9
  %14 = load ptr, ptr %3, align 8, !tbaa !3
  %15 = load ptr, ptr %14, align 8, !tbaa !3
  %16 = load ptr, ptr %2, align 8, !tbaa !56
  call void %15(ptr noundef %16)
  %17 = load ptr, ptr %3, align 8, !tbaa !3
  %18 = getelementptr inbounds nuw ptr, ptr %17, i32 1
  store ptr %18, ptr %3, align 8, !tbaa !3
  br label %9, !llvm.loop !148

19:                                               ; preds = %9
  call void @llvm.lifetime.end.p0(i64 8, ptr %3) #13
  ret void
}

; Function Attrs: inlinehint nounwind uwtable
define internal ptr @pmix_tma_malloc(ptr noundef %0, i64 noundef %1) #2 {
  %3 = alloca ptr, align 8
  %4 = alloca ptr, align 8
  %5 = alloca i64, align 8
  store ptr %0, ptr %4, align 8, !tbaa !52
  store i64 %1, ptr %5, align 8, !tbaa !152
  %6 = load ptr, ptr %4, align 8, !tbaa !52
  %7 = icmp ne ptr null, %6
  br i1 %7, label %8, label %15

8:                                                ; preds = %2
  %9 = load ptr, ptr %4, align 8, !tbaa !52
  %10 = getelementptr inbounds nuw %struct.pmix_tma, ptr %9, i32 0, i32 0
  %11 = load ptr, ptr %10, align 8, !tbaa !184
  %12 = load ptr, ptr %4, align 8, !tbaa !52
  %13 = load i64, ptr %5, align 8, !tbaa !152
  %14 = call ptr %11(ptr noundef %12, i64 noundef %13)
  store ptr %14, ptr %3, align 8
  br label %18

15:                                               ; preds = %2
  %16 = load i64, ptr %5, align 8, !tbaa !152
  %17 = call noalias ptr @malloc(i64 noundef %16) #17
  store ptr %17, ptr %3, align 8
  br label %18

18:                                               ; preds = %15, %8
  %19 = load ptr, ptr %3, align 8
  ret ptr %19
}

; Function Attrs: inlinehint nounwind uwtable
define internal void @_pmix_list_append(ptr noundef %0, ptr noundef %1) #2 {
  %3 = alloca ptr, align 8
  %4 = alloca ptr, align 8
  %5 = alloca ptr, align 8
  store ptr %0, ptr %3, align 8, !tbaa !48
  store ptr %1, ptr %4, align 8, !tbaa !9
  call void @llvm.lifetime.start.p0(i64 8, ptr %5) #13
  %6 = load ptr, ptr %3, align 8, !tbaa !48
  %7 = getelementptr inbounds nuw %struct.pmix_list_t, ptr %6, i32 0, i32 1
  store ptr %7, ptr %5, align 8, !tbaa !9
  %8 = load ptr, ptr %5, align 8, !tbaa !9
  %9 = getelementptr inbounds nuw %struct.pmix_list_item_t, ptr %8, i32 0, i32 2
  %10 = load ptr, ptr %9, align 8, !tbaa !70
  %11 = load ptr, ptr %4, align 8, !tbaa !9
  %12 = getelementptr inbounds nuw %struct.pmix_list_item_t, ptr %11, i32 0, i32 2
  store ptr %10, ptr %12, align 8, !tbaa !70
  %13 = load ptr, ptr %4, align 8, !tbaa !9
  %14 = load ptr, ptr %5, align 8, !tbaa !9
  %15 = getelementptr inbounds nuw %struct.pmix_list_item_t, ptr %14, i32 0, i32 2
  %16 = load ptr, ptr %15, align 8, !tbaa !70
  %17 = getelementptr inbounds nuw %struct.pmix_list_item_t, ptr %16, i32 0, i32 1
  store volatile ptr %13, ptr %17, align 8, !tbaa !45
  %18 = load ptr, ptr %5, align 8, !tbaa !9
  %19 = load ptr, ptr %4, align 8, !tbaa !9
  %20 = getelementptr inbounds nuw %struct.pmix_list_item_t, ptr %19, i32 0, i32 1
  store ptr %18, ptr %20, align 8, !tbaa !45
  %21 = load ptr, ptr %4, align 8, !tbaa !9
  %22 = load ptr, ptr %5, align 8, !tbaa !9
  %23 = getelementptr inbounds nuw %struct.pmix_list_item_t, ptr %22, i32 0, i32 2
  store ptr %21, ptr %23, align 8, !tbaa !70
  %24 = load ptr, ptr %3, align 8, !tbaa !48
  %25 = getelementptr inbounds nuw %struct.pmix_list_t, ptr %24, i32 0, i32 2
  %26 = load volatile i64, ptr %25, align 8, !tbaa !71
  %27 = add i64 %26, 1
  store volatile i64 %27, ptr %25, align 8, !tbaa !71
  call void @llvm.lifetime.end.p0(i64 8, ptr %5) #13
  ret void
}

; Function Attrs: inlinehint nounwind uwtable
define internal ptr @pmix_obj_new_tma(ptr noundef %0, ptr noundef %1) #2 {
  %3 = alloca ptr, align 8
  %4 = alloca ptr, align 8
  %5 = alloca ptr, align 8
  store ptr %0, ptr %3, align 8, !tbaa !51
  store ptr %1, ptr %4, align 8, !tbaa !52
  call void @llvm.lifetime.start.p0(i64 8, ptr %5) #13
  %6 = load ptr, ptr %4, align 8, !tbaa !52
  %7 = load ptr, ptr %3, align 8, !tbaa !51
  %8 = getelementptr inbounds nuw %struct.pmix_class_t, ptr %7, i32 0, i32 8
  %9 = load i64, ptr %8, align 8, !tbaa !54
  %10 = call ptr @pmix_tma_malloc(ptr noundef %6, i64 noundef %9)
  store ptr %10, ptr %5, align 8, !tbaa !56
  %11 = load i32, ptr @pmix_class_init_epoch, align 4, !tbaa !7
  %12 = load ptr, ptr %3, align 8, !tbaa !51
  %13 = getelementptr inbounds nuw %struct.pmix_class_t, ptr %12, i32 0, i32 4
  %14 = load i32, ptr %13, align 8, !tbaa !58
  %15 = icmp ne i32 %11, %14
  br i1 %15, label %16, label %18

16:                                               ; preds = %2
  %17 = load ptr, ptr %3, align 8, !tbaa !51
  call void @pmix_class_initialize(ptr noundef %17)
  br label %18

18:                                               ; preds = %16, %2
  %19 = load ptr, ptr %5, align 8, !tbaa !56
  %20 = icmp ne ptr null, %19
  br i1 %20, label %21, label %60

21:                                               ; preds = %18
  %22 = load ptr, ptr %5, align 8, !tbaa !56
  %23 = getelementptr inbounds nuw %struct.pmix_object_t, ptr %22, i32 0, i32 0
  %24 = call i32 @pthread_mutex_init(ptr noundef %23, ptr noundef null) #13
  %25 = load ptr, ptr %3, align 8, !tbaa !51
  %26 = load ptr, ptr %5, align 8, !tbaa !56
  %27 = getelementptr inbounds nuw %struct.pmix_object_t, ptr %26, i32 0, i32 1
  store ptr %25, ptr %27, align 8, !tbaa !59
  %28 = load ptr, ptr %5, align 8, !tbaa !56
  %29 = getelementptr inbounds nuw %struct.pmix_object_t, ptr %28, i32 0, i32 2
  store i32 1, ptr %29, align 8, !tbaa !60
  %30 = load ptr, ptr %4, align 8, !tbaa !52
  %31 = icmp eq ptr null, %30
  br i1 %31, label %32, label %54

32:                                               ; preds = %21
  %33 = load ptr, ptr %5, align 8, !tbaa !56
  %34 = getelementptr inbounds nuw %struct.pmix_object_t, ptr %33, i32 0, i32 3
  %35 = getelementptr inbounds nuw %struct.pmix_tma, ptr %34, i32 0, i32 0
  store ptr null, ptr %35, align 8, !tbaa !61
  %36 = load ptr, ptr %5, align 8, !tbaa !56
  %37 = getelementptr inbounds nuw %struct.pmix_object_t, ptr %36, i32 0, i32 3
  %38 = getelementptr inbounds nuw %struct.pmix_tma, ptr %37, i32 0, i32 1
  store ptr null, ptr %38, align 8, !tbaa !62
  %39 = load ptr, ptr %5, align 8, !tbaa !56
  %40 = getelementptr inbounds nuw %struct.pmix_object_t, ptr %39, i32 0, i32 3
  %41 = getelementptr inbounds nuw %struct.pmix_tma, ptr %40, i32 0, i32 2
  store ptr null, ptr %41, align 8, !tbaa !63
  %42 = load ptr, ptr %5, align 8, !tbaa !56
  %43 = getelementptr inbounds nuw %struct.pmix_object_t, ptr %42, i32 0, i32 3
  %44 = getelementptr inbounds nuw %struct.pmix_tma, ptr %43, i32 0, i32 3
  store ptr null, ptr %44, align 8, !tbaa !64
  %45 = load ptr, ptr %5, align 8, !tbaa !56
  %46 = getelementptr inbounds nuw %struct.pmix_object_t, ptr %45, i32 0, i32 3
  %47 = getelementptr inbounds nuw %struct.pmix_tma, ptr %46, i32 0, i32 5
  store ptr null, ptr %47, align 8, !tbaa !65
  %48 = load ptr, ptr %5, align 8, !tbaa !56
  %49 = getelementptr inbounds nuw %struct.pmix_object_t, ptr %48, i32 0, i32 3
  %50 = getelementptr inbounds nuw %struct.pmix_tma, ptr %49, i32 0, i32 6
  store ptr null, ptr %50, align 8, !tbaa !66
  %51 = load ptr, ptr %5, align 8, !tbaa !56
  %52 = getelementptr inbounds nuw %struct.pmix_object_t, ptr %51, i32 0, i32 3
  %53 = getelementptr inbounds nuw %struct.pmix_tma, ptr %52, i32 0, i32 7
  store ptr null, ptr %53, align 8, !tbaa !67
  br label %58

54:                                               ; preds = %21
  %55 = load ptr, ptr %5, align 8, !tbaa !56
  %56 = getelementptr inbounds nuw %struct.pmix_object_t, ptr %55, i32 0, i32 3
  %57 = load ptr, ptr %4, align 8, !tbaa !52
  call void @llvm.memcpy.p0.p0.i64(ptr align 8 %56, ptr align 8 %57, i64 64, i1 false), !tbaa.struct !68
  br label %58

58:                                               ; preds = %54, %32
  %59 = load ptr, ptr %5, align 8, !tbaa !56
  call void @pmix_obj_run_constructors(ptr noundef %59)
  br label %60

60:                                               ; preds = %58, %18
  %61 = load ptr, ptr %5, align 8, !tbaa !56
  call void @llvm.lifetime.end.p0(i64 8, ptr %5) #13
  ret ptr %61
}

; Function Attrs: inlinehint nounwind uwtable
define internal ptr @pmix_list_get_end(ptr noundef %0) #2 {
  %2 = alloca ptr, align 8
  store ptr %0, ptr %2, align 8, !tbaa !48
  %3 = load ptr, ptr %2, align 8, !tbaa !48
  %4 = getelementptr inbounds nuw %struct.pmix_list_t, ptr %3, i32 0, i32 1
  ret ptr %4
}

; Function Attrs: inlinehint nounwind uwtable
define internal ptr @pmix_list_get_first(ptr noundef %0) #2 {
  %2 = alloca ptr, align 8
  %3 = alloca ptr, align 8
  store ptr %0, ptr %2, align 8, !tbaa !48
  call void @llvm.lifetime.start.p0(i64 8, ptr %3) #13
  %4 = load ptr, ptr %2, align 8, !tbaa !48
  %5 = getelementptr inbounds nuw %struct.pmix_list_t, ptr %4, i32 0, i32 1
  %6 = getelementptr inbounds nuw %struct.pmix_list_item_t, ptr %5, i32 0, i32 1
  %7 = load ptr, ptr %6, align 8, !tbaa !50
  store ptr %7, ptr %3, align 8, !tbaa !9
  %8 = load ptr, ptr %3, align 8, !tbaa !9
  call void @llvm.lifetime.end.p0(i64 8, ptr %3) #13
  ret ptr %8
}

; Function Attrs: nounwind uwtable
define i32 @prte_state_base_add_proc_state(i32 noundef %0, ptr noundef %1) #0 {
  %3 = alloca i32, align 4
  %4 = alloca i32, align 4
  %5 = alloca ptr, align 8
  %6 = alloca ptr, align 8
  %7 = alloca ptr, align 8
  %8 = alloca i32, align 4
  store i32 %0, ptr %4, align 4, !tbaa !7
  store ptr %1, ptr %5, align 8, !tbaa !3
  call void @llvm.lifetime.start.p0(i64 8, ptr %6) #13
  call void @llvm.lifetime.start.p0(i64 8, ptr %7) #13
  %9 = call ptr @pmix_list_get_first(ptr noundef @prte_proc_states)
  store ptr %9, ptr %6, align 8, !tbaa !9
  br label %10

10:                                               ; preds = %48, %2
  %11 = load ptr, ptr %6, align 8, !tbaa !9
  %12 = call ptr @pmix_list_get_end(ptr noundef @prte_proc_states)
  %13 = icmp ne ptr %11, %12
  br i1 %13, label %14, label %50

14:                                               ; preds = %10
  %15 = load ptr, ptr %6, align 8, !tbaa !9
  store ptr %15, ptr %7, align 8, !tbaa !3
  %16 = load ptr, ptr %7, align 8, !tbaa !3
  %17 = getelementptr inbounds nuw %struct.prte_state_t, ptr %16, i32 0, i32 2
  %18 = load i32, ptr %17, align 4, !tbaa !80
  %19 = load i32, ptr %4, align 4, !tbaa !7
  %20 = icmp eq i32 %18, %19
  br i1 %20, label %21, label %39

21:                                               ; preds = %14
  %22 = load i32, ptr getelementptr inbounds nuw (%struct.pmix_mca_base_framework_t, ptr @prte_state_base_framework, i32 0, i32 11), align 4, !tbaa !28
  %23 = icmp sge i32 %22, 0
  br i1 %23, label %24, label %38

24:                                               ; preds = %21
  %25 = load i32, ptr getelementptr inbounds nuw (%struct.pmix_mca_base_framework_t, ptr @prte_state_base_framework, i32 0, i32 11), align 4, !tbaa !28
  %26 = icmp slt i32 %25, 64
  br i1 %26, label %27, label %38

27:                                               ; preds = %24
  %28 = load i32, ptr getelementptr inbounds nuw (%struct.pmix_mca_base_framework_t, ptr @prte_state_base_framework, i32 0, i32 11), align 4, !tbaa !28
  %29 = sext i32 %28 to i64
  %30 = getelementptr inbounds [0 x %struct.pmix_output_desc_t], ptr @pmix_output_info, i64 0, i64 %29
  %31 = getelementptr inbounds nuw %struct.pmix_output_desc_t, ptr %30, i32 0, i32 2
  %32 = load i32, ptr %31, align 4, !tbaa !29
  %33 = icmp sge i32 %32, 1
  br i1 %33, label %34, label %38

34:                                               ; preds = %27
  %35 = load i32, ptr getelementptr inbounds nuw (%struct.pmix_mca_base_framework_t, ptr @prte_state_base_framework, i32 0, i32 11), align 4, !tbaa !28
  %36 = load i32, ptr %4, align 4, !tbaa !7
  %37 = call ptr @prte_proc_state_to_str(i32 noundef %36)
  call void (i32, ptr, ...) @pmix_output(i32 noundef %35, ptr noundef @.str.6, ptr noundef %37)
  br label %38

38:                                               ; preds = %34, %27, %24, %21
  store i32 -5, ptr %3, align 4
  store i32 1, ptr %8, align 4
  br label %60

39:                                               ; preds = %14
  br label %40

40:                                               ; preds = %39
  %41 = load ptr, ptr %6, align 8, !tbaa !9
  %42 = icmp ne ptr %41, null
  br i1 %42, label %43, label %47

43:                                               ; preds = %40
  %44 = load ptr, ptr %6, align 8, !tbaa !9
  %45 = getelementptr inbounds nuw %struct.pmix_list_item_t, ptr %44, i32 0, i32 1
  %46 = load ptr, ptr %45, align 8, !tbaa !45
  br label %48

47:                                               ; preds = %40
  br label %48

48:                                               ; preds = %47, %43
  %49 = phi ptr [ %46, %43 ], [ null, %47 ]
  store ptr %49, ptr %6, align 8, !tbaa !9
  br label %10, !llvm.loop !85

50:                                               ; preds = %10
  %51 = call ptr @pmix_obj_new_tma(ptr noundef @prte_state_t_class, ptr noundef null)
  store ptr %51, ptr %7, align 8, !tbaa !3
  %52 = load i32, ptr %4, align 4, !tbaa !7
  %53 = load ptr, ptr %7, align 8, !tbaa !3
  %54 = getelementptr inbounds nuw %struct.prte_state_t, ptr %53, i32 0, i32 2
  store i32 %52, ptr %54, align 4, !tbaa !80
  %55 = load ptr, ptr %5, align 8, !tbaa !3
  %56 = load ptr, ptr %7, align 8, !tbaa !3
  %57 = getelementptr inbounds nuw %struct.prte_state_t, ptr %56, i32 0, i32 3
  store ptr %55, ptr %57, align 8, !tbaa !32
  %58 = load ptr, ptr %7, align 8, !tbaa !3
  %59 = getelementptr inbounds nuw %struct.prte_state_t, ptr %58, i32 0, i32 0
  call void @_pmix_list_append(ptr noundef @prte_proc_states, ptr noundef %59)
  store i32 0, ptr %3, align 4
  store i32 1, ptr %8, align 4
  br label %60

60:                                               ; preds = %50, %38
  call void @llvm.lifetime.end.p0(i64 8, ptr %7) #13
  call void @llvm.lifetime.end.p0(i64 8, ptr %6) #13
  %61 = load i32, ptr %3, align 4
  ret i32 %61
}