; Function Attrs: nounwind uwtable
define range(i32 -5, 1) i32 @prte_state_base_add_proc_state(i32 noundef %0, ptr noundef %1) local_unnamed_addr #0 {
  %prte_proc_states.val = load ptr, ptr getelementptr inbounds nuw (i8, ptr @prte_proc_states, i64 240), align 8, !tbaa !3
  %.not17 = icmp eq ptr %prte_proc_states.val, getelementptr inbounds nuw (i8, ptr @prte_proc_states, i64 120)
  br i1 %.not17, label %._crit_edge, label %.lr.ph

.lr.ph:                                           ; preds = %2, %19
  %.018 = phi ptr [ %20, %19 ], [ %prte_proc_states.val, %2 ]
  %3 = getelementptr inbounds nuw i8, ptr %.018, i64 148
  %4 = load i32, ptr %3, align 4, !tbaa !62
  %5 = icmp eq i32 %4, %0
  br i1 %5, label %6, label %15

6:                                                ; preds = %.lr.ph
  %7 = load i32, ptr getelementptr inbounds nuw (i8, ptr @prte_state_base_framework, i64 76), align 4, !tbaa !24
  %or.cond = icmp ult i32 %7, 64
  br i1 %or.cond, label %8, label %46

8:                                                ; preds = %6
  %9 = zext nneg i32 %7 to i64
  %10 = getelementptr inbounds nuw [0 x %struct.pmix_output_desc_t], ptr @pmix_output_info, i64 0, i64 %9, i32 2
  %11 = load i32, ptr %10, align 4, !tbaa !25
  %12 = icmp sgt i32 %11, 0
  br i1 %12, label %13, label %46

13:                                               ; preds = %8
  %14 = tail call ptr @prte_proc_state_to_str(i32 noundef %0) #14
  tail call void (i32, ptr, ...) @pmix_output(i32 noundef %7, ptr noundef nonnull @.str.6, ptr noundef %14) #14
  br label %46

15:                                               ; preds = %.lr.ph
  %.not16 = icmp eq ptr %.018, null
  br i1 %.not16, label %19, label %16

16:                                               ; preds = %15
  %17 = getelementptr inbounds nuw i8, ptr %.018, i64 120
  %18 = load ptr, ptr %17, align 8, !tbaa !51
  br label %19

19:                                               ; preds = %15, %16
  %20 = phi ptr [ %18, %16 ], [ null, %15 ]
  %.not = icmp eq ptr %20, getelementptr inbounds nuw (i8, ptr @prte_proc_states, i64 120)
  br i1 %.not, label %._crit_edge, label %.lr.ph, !llvm.loop !67

._crit_edge:                                      ; preds = %19, %2
  %21 = load i64, ptr getelementptr inbounds nuw (i8, ptr @prte_state_t_class, i64 56), align 8, !tbaa !29
  %22 = tail call noalias noundef ptr @malloc(i64 noundef %21) #15
  %23 = load i32, ptr @pmix_class_init_epoch, align 4, !tbaa !31
  %24 = load i32, ptr getelementptr inbounds nuw (i8, ptr @prte_state_t_class, i64 32), align 8, !tbaa !32
  %.not.i = icmp eq i32 %23, %24
  br i1 %.not.i, label %26, label %25

25:                                               ; preds = %._crit_edge
  tail call void @pmix_class_initialize(ptr noundef nonnull @prte_state_t_class) #14
  br label %26

26:                                               ; preds = %25, %._crit_edge
  %.not22.i = icmp eq ptr %22, null
  br i1 %.not22.i, label %pmix_obj_new_tma.exit, label %27

27:                                               ; preds = %26
  %28 = tail call i32 @pthread_mutex_init(ptr noundef nonnull %22, ptr noundef null) #14
  %29 = getelementptr inbounds nuw i8, ptr %22, i64 40
  store ptr @prte_state_t_class, ptr %29, align 8, !tbaa !33
  %30 = getelementptr inbounds nuw i8, ptr %22, i64 48
  store i32 1, ptr %30, align 8, !tbaa !34
  %31 = getelementptr inbounds nuw i8, ptr %22, i64 56
  %32 = getelementptr inbounds nuw i8, ptr %22, i64 96
  tail call void @llvm.memset.p0.i64(ptr noundef nonnull align 8 dereferenceable(32) %31, i8 0, i64 32, i1 false)
  tail call void @llvm.memset.p0.i64(ptr noundef nonnull align 8 dereferenceable(24) %32, i8 0, i64 24, i1 false)
  %33 = load ptr, ptr getelementptr inbounds nuw (i8, ptr @prte_state_t_class, i64 40), align 8, !tbaa !35
  %34 = load ptr, ptr %33, align 8, !tbaa !36
  %.not6.i.i = icmp eq ptr %34, null
  br i1 %.not6.i.i, label %pmix_obj_new_tma.exit, label %.lr.ph.i.i

.lr.ph.i.i:                                       ; preds = %27, %.lr.ph.i.i
  %35 = phi ptr [ %37, %.lr.ph.i.i ], [ %34, %27 ]
  %.07.i.i = phi ptr [ %36, %.lr.ph.i.i ], [ %33, %27 ]
  tail call void %35(ptr noundef nonnull %22) #14
  %36 = getelementptr inbounds nuw i8, ptr %.07.i.i, i64 8
  %37 = load ptr, ptr %36, align 8, !tbaa !36
  %.not.i.i = icmp eq ptr %37, null
  br i1 %.not.i.i, label %pmix_obj_new_tma.exit, label %.lr.ph.i.i, !llvm.loop !37

pmix_obj_new_tma.exit:                            ; preds = %.lr.ph.i.i, %26, %27
  %38 = getelementptr inbounds nuw i8, ptr %22, i64 148
  store i32 %0, ptr %38, align 4, !tbaa !62
  %39 = getelementptr inbounds nuw i8, ptr %22, i64 152
  store ptr %1, ptr %39, align 8, !tbaa !28
  %40 = load ptr, ptr getelementptr inbounds nuw (i8, ptr @prte_proc_states, i64 248), align 8, !tbaa !54
  %41 = getelementptr inbounds nuw i8, ptr %22, i64 128
  store ptr %40, ptr %41, align 8, !tbaa !54
  %42 = getelementptr inbounds nuw i8, ptr %40, i64 120
  store volatile ptr %22, ptr %42, align 8, !tbaa !51
  %43 = getelementptr inbounds nuw i8, ptr %22, i64 120
  store ptr getelementptr inbounds nuw (i8, ptr @prte_proc_states, i64 120), ptr %43, align 8, !tbaa !51
  store ptr %22, ptr getelementptr inbounds nuw (i8, ptr @prte_proc_states, i64 248), align 8, !tbaa !54
  %44 = load volatile i64, ptr getelementptr inbounds nuw (i8, ptr @prte_proc_states, i64 264), align 8, !tbaa !55
  %45 = add i64 %44, 1
  store volatile i64 %45, ptr getelementptr inbounds nuw (i8, ptr @prte_proc_states, i64 264), align 8, !tbaa !55
  br label %46

46:                                               ; preds = %6, %8, %13, %pmix_obj_new_tma.exit
  %.013 = phi i32 [ 0, %pmix_obj_new_tma.exit ], [ -5, %13 ], [ -5, %8 ], [ -5, %6 ]
  ret i32 %.013
}